target datalayout = "e-m:e-p270:32:32-p271:32:32-p272:64:64-i64:64-i128:128-f80:128-n8:16:32:64-S128"
target triple = "x86_64-pc-linux-gnu"

%struct._object = type { %union.anon, ptr }
%union.anon = type { i64 }
%struct.PyVarObject = type { %struct._object, i64 }
%struct.array_state = type { ptr, ptr, ptr, ptr, ptr, ptr, ptr }
%struct.PyModuleObject = type { %struct._object, ptr, ptr, ptr, ptr, ptr }
%struct.arrayiterobject = type { %struct._object, i64, ptr, ptr }

@PyExc_TypeError = external global ptr, align 8
@.str.140 = private unnamed_addr constant [32 x i8] c"__reduce__() takes no arguments\00", align 1
@.str.141 = private unnamed_addr constant [6 x i8] c"N(())\00", align 1
@.str.142 = private unnamed_addr constant [6 x i8] c"N(O)n\00", align 1

; Function Attrs: inlinehint nounwind uwtable
define internal ptr @_PyModule_GetState(ptr noundef %0) #3 {
  %2 = alloca ptr, align 8
  store ptr %0, ptr %2, align 8, !tbaa !3
  %3 = load ptr, ptr %2, align 8, !tbaa !3
  %4 = getelementptr inbounds nuw %struct.PyModuleObject, ptr %3, i32 0, i32 3
  %5 = load ptr, ptr %4, align 8, !tbaa !65
  ret ptr %5
}

; Function Attrs: nounwind uwtable
define internal ptr @get_array_state(ptr noundef %0) #0 {
  %2 = alloca ptr, align 8
  store ptr %0, ptr %2, align 8, !tbaa !3
  %3 = load ptr, ptr %2, align 8, !tbaa !3
  %4 = call ptr @_PyModule_GetState(ptr noundef %3)
  ret ptr %4
}

; Function Attrs: inlinehint nounwind uwtable
define internal i64 @Py_SIZE(ptr noundef %0) #3 {
  %2 = alloca ptr, align 8
  store ptr %0, ptr %2, align 8, !tbaa !3
  %3 = load ptr, ptr %2, align 8, !tbaa !3
  %4 = getelementptr inbounds nuw %struct.PyVarObject, ptr %3, i32 0, i32 1
  %5 = load i64, ptr %4, align 8, !tbaa !62
  ret i64 %5
}

; Function Attrs: nounwind uwtable
define internal ptr @array_arrayiterator___reduce___impl(ptr noundef %0, ptr noundef %1) #0 {
  %3 = alloca ptr, align 8
  %4 = alloca ptr, align 8
  %5 = alloca ptr, align 8
  %6 = alloca ptr, align 8
  %7 = alloca ptr, align 8
  %8 = alloca i32, align 4
  store ptr %0, ptr %4, align 8, !tbaa !8
  store ptr %1, ptr %5, align 8, !tbaa !18
  call void @llvm.lifetime.start.p0(i64 8, ptr %6) #8
  %9 = load ptr, ptr %5, align 8, !tbaa !18
  %10 = call ptr @PyType_GetModule(ptr noundef %9)
  %11 = call ptr @get_array_state(ptr noundef %10)
  store ptr %11, ptr %6, align 8, !tbaa !8
  call void @llvm.lifetime.start.p0(i64 8, ptr %7) #8
  %12 = load ptr, ptr %6, align 8, !tbaa !8
  %13 = getelementptr inbounds nuw %struct.array_state, ptr %12, i32 0, i32 6
  %14 = load ptr, ptr %13, align 8, !tbaa !116
  %15 = call ptr @_PyEval_GetBuiltin(ptr noundef %14)
  store ptr %15, ptr %7, align 8, !tbaa !3
  %16 = load ptr, ptr %4, align 8, !tbaa !8
  %17 = getelementptr inbounds nuw %struct.arrayiterobject, ptr %16, i32 0, i32 2
  %18 = load ptr, ptr %17, align 8, !tbaa !121
  %19 = icmp eq ptr %18, null
  br i1 %19, label %20, label %23

20:                                               ; preds = %2
  %21 = load ptr, ptr %7, align 8, !tbaa !3
  %22 = call ptr (ptr, ...) @Py_BuildValue(ptr noundef @.str.141, ptr noundef %21)
  store ptr %22, ptr %3, align 8
  store i32 1, ptr %8, align 4
  br label %32

23:                                               ; preds = %2
  %24 = load ptr, ptr %7, align 8, !tbaa !3
  %25 = load ptr, ptr %4, align 8, !tbaa !8
  %26 = getelementptr inbounds nuw %struct.arrayiterobject, ptr %25, i32 0, i32 2
  %27 = load ptr, ptr %26, align 8, !tbaa !121
  %28 = load ptr, ptr %4, align 8, !tbaa !8
  %29 = getelementptr inbounds nuw %struct.arrayiterobject, ptr %28, i32 0, i32 1
  %30 = load i64, ptr %29, align 8, !tbaa !123
  %31 = call ptr (ptr, ...) @Py_BuildValue(ptr noundef @.str.142, ptr noundef %24, ptr noundef %27, i64 noundef %30)
  store ptr %31, ptr %3, align 8
  store i32 1, ptr %8, align 4
  br label %32

32:                                               ; preds = %23, %20
  call void @llvm.lifetime.end.p0(i64 8, ptr %7) #8
  call void @llvm.lifetime.end.p0(i64 8, ptr %6) #8
  %33 = load ptr, ptr %3, align 8
  ret ptr %33
}

; Function Attrs: inlinehint nounwind uwtable
define internal i64 @PyTuple_GET_SIZE(ptr noundef %0) #3 {
  %2 = alloca ptr, align 8
  %3 = alloca ptr, align 8
  store ptr %0, ptr %2, align 8, !tbaa !3
  call void @llvm.lifetime.start.p0(i64 8, ptr %3) #8
  %4 = load ptr, ptr %2, align 8, !tbaa !3
  store ptr %4, ptr %3, align 8, !tbaa !8
  %5 = load ptr, ptr %3, align 8, !tbaa !8
  %6 = call i64 @Py_SIZE(ptr noundef %5)
  call void @llvm.lifetime.end.p0(i64 8, ptr %3) #8
  ret i64 %6
}

; Function Attrs: nounwind uwtable
define internal ptr @array_arrayiterator___reduce__(ptr noundef %0, ptr noundef %1, ptr noundef %2, i64 noundef %3, ptr noundef %4) #0 {
  %6 = alloca ptr, align 8
  %7 = alloca ptr, align 8
  %8 = alloca ptr, align 8
  %9 = alloca ptr, align 8
  %10 = alloca i64, align 8
  %11 = alloca ptr, align 8
  store ptr %0, ptr %7, align 8, !tbaa !3
  store ptr %1, ptr %8, align 8, !tbaa !18
  store ptr %2, ptr %9, align 8, !tbaa !19
  store i64 %3, ptr %10, align 8, !tbaa !21
  store ptr %4, ptr %11, align 8, !tbaa !3
  %12 = load i64, ptr %10, align 8, !tbaa !21
  %13 = icmp ne i64 %12, 0
  br i1 %13, label %21, label %14

14:                                               ; preds = %5
  %15 = load ptr, ptr %11, align 8, !tbaa !3
  %16 = icmp ne ptr %15, null
  br i1 %16, label %17, label %23

17:                                               ; preds = %14
  %18 = load ptr, ptr %11, align 8, !tbaa !3
  %19 = call i64 @PyTuple_GET_SIZE(ptr noundef %18)
  %20 = icmp ne i64 %19, 0
  br i1 %20, label %21, label %23

21:                                               ; preds = %17, %5
  %22 = load ptr, ptr @PyExc_TypeError, align 8, !tbaa !3
  call void @PyErr_SetString(ptr noundef %22, ptr noundef @.str.140)
  store ptr null, ptr %6, align 8
  br label %27

23:                                               ; preds = %17, %14
  %24 = load ptr, ptr %7, align 8, !tbaa !3
  %25 = load ptr, ptr %8, align 8, !tbaa !18
  %26 = call ptr @array_arrayiterator___reduce___impl(ptr noundef %24, ptr noundef %25)
  store ptr %26, ptr %6, align 8
  br label %27

27:                                               ; preds = %23, %21
  %28 = load ptr, ptr %6, align 8
  ret ptr %28
}