; Function Attrs: nounwind uwtable
define internal ptr @array_arrayiterator___reduce__(ptr noundef readonly captures(none) %0, ptr noundef %1, ptr readnone captures(none) %2, i64 noundef %3, ptr noundef readonly %4) #0 {
  %.not = icmp eq i64 %3, 0
  br i1 %.not, label %6, label %9

6:                                                ; preds = %5
  %.not6 = icmp eq ptr %4, null
  br i1 %.not6, label %11, label %7

7:                                                ; preds = %6
  %8 = getelementptr i8, ptr %4, i64 16
  %.val = load i64, ptr %8, align 8, !tbaa !40
  %.not7 = icmp eq i64 %.val, 0
  br i1 %.not7, label %11, label %9

9:                                                ; preds = %7, %5
  %10 = load ptr, ptr @PyExc_TypeError, align 8, !tbaa !18
  tail call void @PyErr_SetString(ptr noundef %10, ptr noundef nonnull @.str.140) #11
  br label %array_arrayiterator___reduce___impl.exit

11:                                               ; preds = %7, %6
  %12 = tail call ptr @PyType_GetModule(ptr noundef %1) #11
  %13 = getelementptr i8, ptr %12, i64 32
  %.val.i = load ptr, ptr %13, align 8, !tbaa !3
  %14 = getelementptr inbounds nuw i8, ptr %.val.i, i64 48
  %15 = load ptr, ptr %14, align 8, !tbaa !94
  %16 = tail call ptr @_PyEval_GetBuiltin(ptr noundef %15) #11
  %17 = getelementptr inbounds nuw i8, ptr %0, i64 24
  %18 = load ptr, ptr %17, align 8, !tbaa !101
  %19 = icmp eq ptr %18, null
  br i1 %19, label %20, label %22

20:                                               ; preds = %11
  %21 = tail call ptr (ptr, ...) @Py_BuildValue(ptr noundef nonnull @.str.141, ptr noundef %16) #11
  br label %array_arrayiterator___reduce___impl.exit

22:                                               ; preds = %11
  %23 = getelementptr inbounds nuw i8, ptr %0, i64 16
  %24 = load i64, ptr %23, align 8, !tbaa !104
  %25 = tail call ptr (ptr, ...) @Py_BuildValue(ptr noundef nonnull @.str.142, ptr noundef %16, ptr noundef nonnull %18, i64 noundef %24) #11
  br label %array_arrayiterator___reduce___impl.exit

array_arrayiterator___reduce___impl.exit:         ; preds = %22, %20, %9
  %.0 = phi ptr [ null, %9 ], [ %21, %20 ], [ %25, %22 ]
  ret ptr %.0
}